target datalayout = "e-m:e-p270:32:32-p271:32:32-p272:64:64-i64:64-i128:128-f80:128-n8:16:32:64-S128"
target triple = "x86_64-pc-linux-gnu"

%struct.H5G_loc_t = type { ptr, ptr }
%struct.H5VL_loc_params_t = type { i32, i32, %union.anon }
%union.anon = type { %struct.H5VL_loc_by_idx }
%struct.H5VL_loc_by_idx = type { ptr, i32, i32, i64, i64 }
%struct.H5T_t = type { %struct.H5O_shared_t, ptr, %struct.H5O_loc_t, %struct.H5G_name_t, ptr }
%struct.H5O_shared_t = type { i32, ptr, i32, %union.anon.0 }
%union.anon.0 = type { %struct.H5O_mesg_loc_t }
%struct.H5O_mesg_loc_t = type { i32, i64 }
%struct.H5O_loc_t = type { ptr, i64, i8 }
%struct.H5G_name_t = type { ptr, ptr, i32 }
%struct.H5T_shared_t = type { i64, i32, i32, i64, i32, i8, ptr, ptr, %union.anon.1 }
%union.anon.1 = type { %struct.H5T_array_t }
%struct.H5T_array_t = type { i64, i32, [32 x i64] }

@.str = private unnamed_addr constant [113 x i8] c"generated/home/dtcxzyw/WorkSpace/Projects/compilers/llvm-opt-benchmark/bench/hdf5/hdf5/src/H5VLnative_datatype.c\00", align 1
@__func__.H5VL__native_datatype_commit = private unnamed_addr constant [29 x i8] c"H5VL__native_datatype_commit\00", align 1
@H5E_ARGS_g = external global i64, align 8
@H5E_BADTYPE_g = external global i64, align 8
@.str.1 = private unnamed_addr constant [26 x i8] c"not a file or file object\00", align 1
@.str.2 = private unnamed_addr constant [15 x i8] c"not a datatype\00", align 1
@H5E_BADVALUE_g = external global i64, align 8
@.str.3 = private unnamed_addr constant [30 x i8] c"datatype is already committed\00", align 1
@.str.4 = private unnamed_addr constant [22 x i8] c"datatype is immutable\00", align 1
@.str.5 = private unnamed_addr constant [25 x i8] c"datatype is not sensible\00", align 1
@H5E_DATATYPE_g = external global i64, align 8
@H5E_CANTINIT_g = external global i64, align 8
@.str.6 = private unnamed_addr constant [15 x i8] c"unable to copy\00", align 1
@.str.7 = private unnamed_addr constant [26 x i8] c"unable to commit datatype\00", align 1

; Function Attrs: nounwind uwtable
define ptr @H5VL__native_datatype_commit(ptr noundef %0, ptr noundef %1, ptr noundef %2, i64 noundef %3, i64 noundef %4, i64 noundef %5, i64 noundef %6, i64 noundef %7, ptr noundef %8) #0 {
  %10 = alloca ptr, align 8
  %11 = alloca ptr, align 8
  %12 = alloca ptr, align 8
  %13 = alloca i64, align 8
  %14 = alloca i64, align 8
  %15 = alloca i64, align 8
  %16 = alloca i64, align 8
  %17 = alloca i64, align 8
  %18 = alloca ptr, align 8
  %19 = alloca %struct.H5G_loc_t, align 8
  %20 = alloca ptr, align 8
  %21 = alloca ptr, align 8
  %22 = alloca ptr, align 8
  %23 = alloca i8, align 1
  store ptr %0, ptr %10, align 8
  store ptr %1, ptr %11, align 8
  store ptr %2, ptr %12, align 8
  store i64 %3, ptr %13, align 8
  store i64 %4, ptr %14, align 8
  store i64 %5, ptr %15, align 8
  store i64 %6, ptr %16, align 8
  store i64 %7, ptr %17, align 8
  store ptr %8, ptr %18, align 8
  store ptr null, ptr %21, align 8
  store ptr null, ptr %22, align 8
  store i8 0, ptr %23, align 1
  %24 = load ptr, ptr %10, align 8
  %25 = load ptr, ptr %11, align 8
  %26 = getelementptr inbounds %struct.H5VL_loc_params_t, ptr %25, i32 0, i32 0
  %27 = load i32, ptr %26, align 8
  %28 = call i32 @H5G_loc_real(ptr noundef %24, i32 noundef %27, ptr noundef %19)
  %29 = icmp slt i32 %28, 0
  br i1 %29, label %30, label %45

30:                                               ; preds = %9
  br label %31

31:                                               ; preds = %30
  br label %32

32:                                               ; preds = %31
  br label %33

33:                                               ; preds = %32
  %34 = load i64, ptr @H5E_ARGS_g, align 8
  %35 = load i64, ptr @H5E_BADTYPE_g, align 8
  %36 = call i32 (ptr, ptr, i32, i64, i64, ptr, ...) @H5E_printf_stack(ptr noundef @.str, ptr noundef @__func__.H5VL__native_datatype_commit, i32 noundef 85, i64 noundef %34, i64 noundef %35, ptr noundef @.str.1)
  br label %37

37:                                               ; preds = %33
  store i8 1, ptr %23, align 1
  %38 = load i8, ptr %23, align 1
  %39 = trunc i8 %38 to i1
  %40 = zext i1 %39 to i8
  store i8 %40, ptr %23, align 1
  br label %41

41:                                               ; preds = %37
  br label %42

42:                                               ; preds = %41
  store ptr null, ptr %22, align 8
  br label %206

43:                                               ; No predecessors!
  br label %44

44:                                               ; preds = %43
  br label %45

45:                                               ; preds = %44, %9
  %46 = load i64, ptr %13, align 8
  %47 = call ptr @H5I_object_verify(i64 noundef %46, i32 noundef 3)
  store ptr %47, ptr %20, align 8
  %48 = icmp eq ptr null, %47
  br i1 %48, label %49, label %64

49:                                               ; preds = %45
  br label %50

50:                                               ; preds = %49
  br label %51

51:                                               ; preds = %50
  br label %52

52:                                               ; preds = %51
  %53 = load i64, ptr @H5E_ARGS_g, align 8
  %54 = load i64, ptr @H5E_BADTYPE_g, align 8
  %55 = call i32 (ptr, ptr, i32, i64, i64, ptr, ...) @H5E_printf_stack(ptr noundef @.str, ptr noundef @__func__.H5VL__native_datatype_commit, i32 noundef 88, i64 noundef %53, i64 noundef %54, ptr noundef @.str.2)
  br label %56

56:                                               ; preds = %52
  store i8 1, ptr %23, align 1
  %57 = load i8, ptr %23, align 1
  %58 = trunc i8 %57 to i1
  %59 = zext i1 %58 to i8
  store i8 %59, ptr %23, align 1
  br label %60

60:                                               ; preds = %56
  br label %61

61:                                               ; preds = %60
  store ptr null, ptr %22, align 8
  br label %206

62:                                               ; No predecessors!
  br label %63

63:                                               ; preds = %62
  br label %64

64:                                               ; preds = %63, %45
  %65 = load ptr, ptr %20, align 8
  %66 = getelementptr inbounds %struct.H5T_t, ptr %65, i32 0, i32 1
  %67 = load ptr, ptr %66, align 8
  %68 = getelementptr inbounds %struct.H5T_shared_t, ptr %67, i32 0, i32 1
  %69 = load i32, ptr %68, align 8
  %70 = icmp eq i32 3, %69
  br i1 %70, label %78, label %71

71:                                               ; preds = %64
  %72 = load ptr, ptr %20, align 8
  %73 = getelementptr inbounds %struct.H5T_t, ptr %72, i32 0, i32 1
  %74 = load ptr, ptr %73, align 8
  %75 = getelementptr inbounds %struct.H5T_shared_t, ptr %74, i32 0, i32 1
  %76 = load i32, ptr %75, align 8
  %77 = icmp eq i32 4, %76
  br i1 %77, label %78, label %93

78:                                               ; preds = %71, %64
  br label %79

79:                                               ; preds = %78
  br label %80

80:                                               ; preds = %79
  br label %81

81:                                               ; preds = %80
  %82 = load i64, ptr @H5E_ARGS_g, align 8
  %83 = load i64, ptr @H5E_BADVALUE_g, align 8
  %84 = call i32 (ptr, ptr, i32, i64, i64, ptr, ...) @H5E_printf_stack(ptr noundef @.str, ptr noundef @__func__.H5VL__native_datatype_commit, i32 noundef 95, i64 noundef %82, i64 noundef %83, ptr noundef @.str.3)
  br label %85

85:                                               ; preds = %81
  store i8 1, ptr %23, align 1
  %86 = load i8, ptr %23, align 1
  %87 = trunc i8 %86 to i1
  %88 = zext i1 %87 to i8
  store i8 %88, ptr %23, align 1
  br label %89

89:                                               ; preds = %85
  br label %90

90:                                               ; preds = %89
  store ptr null, ptr %22, align 8
  br label %206

91:                                               ; No predecessors!
  br label %92

92:                                               ; preds = %91
  br label %93

93:                                               ; preds = %92, %71
  %94 = load ptr, ptr %20, align 8
  %95 = getelementptr inbounds %struct.H5T_t, ptr %94, i32 0, i32 1
  %96 = load ptr, ptr %95, align 8
  %97 = getelementptr inbounds %struct.H5T_shared_t, ptr %96, i32 0, i32 1
  %98 = load i32, ptr %97, align 8
  %99 = icmp eq i32 2, %98
  br i1 %99, label %100, label %115

100:                                              ; preds = %93
  br label %101

101:                                              ; preds = %100
  br label %102

102:                                              ; preds = %101
  br label %103

103:                                              ; preds = %102
  %104 = load i64, ptr @H5E_ARGS_g, align 8
  %105 = load i64, ptr @H5E_BADVALUE_g, align 8
  %106 = call i32 (ptr, ptr, i32, i64, i64, ptr, ...) @H5E_printf_stack(ptr noundef @.str, ptr noundef @__func__.H5VL__native_datatype_commit, i32 noundef 97, i64 noundef %104, i64 noundef %105, ptr noundef @.str.4)
  br label %107

107:                                              ; preds = %103
  store i8 1, ptr %23, align 1
  %108 = load i8, ptr %23, align 1
  %109 = trunc i8 %108 to i1
  %110 = zext i1 %109 to i8
  store i8 %110, ptr %23, align 1
  br label %111

111:                                              ; preds = %107
  br label %112

112:                                              ; preds = %111
  store ptr null, ptr %22, align 8
  br label %206

113:                                              ; No predecessors!
  br label %114

114:                                              ; preds = %113
  br label %115

115:                                              ; preds = %114, %93
  %116 = load ptr, ptr %20, align 8
  %117 = call i32 @H5T_is_sensible(ptr noundef %116)
  %118 = icmp sle i32 %117, 0
  br i1 %118, label %119, label %134

119:                                              ; preds = %115
  br label %120

120:                                              ; preds = %119
  br label %121

121:                                              ; preds = %120
  br label %122

122:                                              ; preds = %121
  %123 = load i64, ptr @H5E_ARGS_g, align 8
  %124 = load i64, ptr @H5E_BADTYPE_g, align 8
  %125 = call i32 (ptr, ptr, i32, i64, i64, ptr, ...) @H5E_printf_stack(ptr noundef @.str, ptr noundef @__func__.H5VL__native_datatype_commit, i32 noundef 101, i64 noundef %123, i64 noundef %124, ptr noundef @.str.5)
  br label %126

126:                                              ; preds = %122
  store i8 1, ptr %23, align 1
  %127 = load i8, ptr %23, align 1
  %128 = trunc i8 %127 to i1
  %129 = zext i1 %128 to i8
  store i8 %129, ptr %23, align 1
  br label %130

130:                                              ; preds = %126
  br label %131

131:                                              ; preds = %130
  store ptr null, ptr %22, align 8
  br label %206

132:                                              ; No predecessors!
  br label %133

133:                                              ; preds = %132
  br label %134

134:                                              ; preds = %133, %115
  %135 = load ptr, ptr %20, align 8
  %136 = call ptr @H5T_copy(ptr noundef %135, i32 noundef 0)
  store ptr %136, ptr %21, align 8
  %137 = icmp eq ptr null, %136
  br i1 %137, label %138, label %153

138:                                              ; preds = %134
  br label %139

139:                                              ; preds = %138
  br label %140

140:                                              ; preds = %139
  br label %141

141:                                              ; preds = %140
  %142 = load i64, ptr @H5E_DATATYPE_g, align 8
  %143 = load i64, ptr @H5E_CANTINIT_g, align 8
  %144 = call i32 (ptr, ptr, i32, i64, i64, ptr, ...) @H5E_printf_stack(ptr noundef @.str, ptr noundef @__func__.H5VL__native_datatype_commit, i32 noundef 108, i64 noundef %142, i64 noundef %143, ptr noundef @.str.6)
  br label %145

145:                                              ; preds = %141
  store i8 1, ptr %23, align 1
  %146 = load i8, ptr %23, align 1
  %147 = trunc i8 %146 to i1
  %148 = zext i1 %147 to i8
  store i8 %148, ptr %23, align 1
  br label %149

149:                                              ; preds = %145
  br label %150

150:                                              ; preds = %149
  store ptr null, ptr %22, align 8
  br label %206

151:                                              ; No predecessors!
  br label %152

152:                                              ; preds = %151
  br label %153

153:                                              ; preds = %152, %134
  %154 = load ptr, ptr %12, align 8
  %155 = icmp ne ptr null, %154
  br i1 %155, label %156, label %179

156:                                              ; preds = %153
  %157 = load ptr, ptr %12, align 8
  %158 = load ptr, ptr %21, align 8
  %159 = load i64, ptr %14, align 8
  %160 = load i64, ptr %15, align 8
  %161 = call i32 @H5T__commit_named(ptr noundef %19, ptr noundef %157, ptr noundef %158, i64 noundef %159, i64 noundef %160)
  %162 = icmp slt i32 %161, 0
  br i1 %162, label %163, label %178

163:                                              ; preds = %156
  br label %164

164:                                              ; preds = %163
  br label %165

165:                                              ; preds = %164
  br label %166

166:                                              ; preds = %165
  %167 = load i64, ptr @H5E_DATATYPE_g, align 8
  %168 = load i64, ptr @H5E_CANTINIT_g, align 8
  %169 = call i32 (ptr, ptr, i32, i64, i64, ptr, ...) @H5E_printf_stack(ptr noundef @.str, ptr noundef @__func__.H5VL__native_datatype_commit, i32 noundef 114, i64 noundef %167, i64 noundef %168, ptr noundef @.str.7)
  br label %170

170:                                              ; preds = %166
  store i8 1, ptr %23, align 1
  %171 = load i8, ptr %23, align 1
  %172 = trunc i8 %171 to i1
  %173 = zext i1 %172 to i8
  store i8 %173, ptr %23, align 1
  br label %174

174:                                              ; preds = %170
  br label %175

175:                                              ; preds = %174
  store ptr null, ptr %22, align 8
  br label %206

176:                                              ; No predecessors!
  br label %177

177:                                              ; preds = %176
  br label %178

178:                                              ; preds = %177, %156
  br label %204

179:                                              ; preds = %153
  %180 = getelementptr inbounds %struct.H5G_loc_t, ptr %19, i32 0, i32 0
  %181 = load ptr, ptr %180, align 8
  %182 = getelementptr inbounds %struct.H5O_loc_t, ptr %181, i32 0, i32 0
  %183 = load ptr, ptr %182, align 8
  %184 = load ptr, ptr %21, align 8
  %185 = load i64, ptr %15, align 8
  %186 = call i32 @H5T__commit_anon(ptr noundef %183, ptr noundef %184, i64 noundef %185)
  %187 = icmp slt i32 %186, 0
  br i1 %187, label %188, label %203

188:                                              ; preds = %179
  br label %189

189:                                              ; preds = %188
  br label %190

190:                                              ; preds = %189
  br label %191

191:                                              ; preds = %190
  %192 = load i64, ptr @H5E_DATATYPE_g, align 8
  %193 = load i64, ptr @H5E_CANTINIT_g, align 8
  %194 = call i32 (ptr, ptr, i32, i64, i64, ptr, ...) @H5E_printf_stack(ptr noundef @.str, ptr noundef @__func__.H5VL__native_datatype_commit, i32 noundef 119, i64 noundef %192, i64 noundef %193, ptr noundef @.str.7)
  br label %195

195:                                              ; preds = %191
  store i8 1, ptr %23, align 1
  %196 = load i8, ptr %23, align 1
  %197 = trunc i8 %196 to i1
  %198 = zext i1 %197 to i8
  store i8 %198, ptr %23, align 1
  br label %199

199:                                              ; preds = %195
  br label %200

200:                                              ; preds = %199
  store ptr null, ptr %22, align 8
  br label %206

201:                                              ; No predecessors!
  br label %202

202:                                              ; preds = %201
  br label %203

203:                                              ; preds = %202, %179
  br label %204

204:                                              ; preds = %203, %178
  %205 = load ptr, ptr %21, align 8
  store ptr %205, ptr %22, align 8
  br label %206

206:                                              ; preds = %204, %200, %175, %150, %131, %112, %90, %61, %42
  %207 = load ptr, ptr %22, align 8
  %208 = icmp eq ptr null, %207
  br i1 %208, label %209, label %215

209:                                              ; preds = %206
  %210 = load ptr, ptr %21, align 8
  %211 = icmp ne ptr %210, null
  br i1 %211, label %212, label %215

212:                                              ; preds = %209
  %213 = load ptr, ptr %21, align 8
  %214 = call i32 @H5T_close(ptr noundef %213)
  br label %215

215:                                              ; preds = %212, %209, %206
  %216 = load ptr, ptr %22, align 8
  ret ptr %216
}