; Function Attrs: nounwind uwtable
define ptr @H5VL__native_datatype_commit(ptr noundef %0, ptr nocapture noundef readonly %1, ptr noundef %2, i64 noundef %3, i64 noundef %4, i64 noundef %5, i64 noundef %6, i64 noundef %7, ptr nocapture noundef readnone %8) local_unnamed_addr #0 {
  %10 = alloca %struct.H5G_loc_t, align 8
  %11 = load i32, ptr %1, align 8
  %12 = call i32 @H5G_loc_real(ptr noundef %0, i32 noundef %11, ptr noundef nonnull %10) #2
  %13 = icmp slt i32 %12, 0
  br i1 %13, label %14, label %18

14:                                               ; preds = %9
  %15 = load i64, ptr @H5E_ARGS_g, align 8
  %16 = load i64, ptr @H5E_BADTYPE_g, align 8
  %17 = call i32 (ptr, ptr, i32, i64, i64, ptr, ...) @H5E_printf_stack(ptr noundef nonnull @.str, ptr noundef nonnull @__func__.H5VL__native_datatype_commit, i32 noundef 85, i64 noundef %15, i64 noundef %16, ptr noundef nonnull @.str.1) #2
  br label %.thread

18:                                               ; preds = %9
  %19 = call ptr @H5I_object_verify(i64 noundef %3, i32 noundef 3) #2
  %20 = icmp eq ptr %19, null
  br i1 %20, label %21, label %25

21:                                               ; preds = %18
  %22 = load i64, ptr @H5E_ARGS_g, align 8
  %23 = load i64, ptr @H5E_BADTYPE_g, align 8
  %24 = call i32 (ptr, ptr, i32, i64, i64, ptr, ...) @H5E_printf_stack(ptr noundef nonnull @.str, ptr noundef nonnull @__func__.H5VL__native_datatype_commit, i32 noundef 88, i64 noundef %22, i64 noundef %23, ptr noundef nonnull @.str.2) #2
  br label %.thread

25:                                               ; preds = %18
  %26 = getelementptr inbounds i8, ptr %19, i64 40
  %27 = load ptr, ptr %26, align 8
  %28 = getelementptr inbounds i8, ptr %27, i64 8
  %29 = load i32, ptr %28, align 8
  switch i32 %29, label %38 [
    i32 3, label %30
    i32 4, label %30
    i32 2, label %34
  ]

30:                                               ; preds = %25, %25
  %31 = load i64, ptr @H5E_ARGS_g, align 8
  %32 = load i64, ptr @H5E_BADVALUE_g, align 8
  %33 = call i32 (ptr, ptr, i32, i64, i64, ptr, ...) @H5E_printf_stack(ptr noundef nonnull @.str, ptr noundef nonnull @__func__.H5VL__native_datatype_commit, i32 noundef 95, i64 noundef %31, i64 noundef %32, ptr noundef nonnull @.str.3) #2
  br label %.thread

34:                                               ; preds = %25
  %35 = load i64, ptr @H5E_ARGS_g, align 8
  %36 = load i64, ptr @H5E_BADVALUE_g, align 8
  %37 = call i32 (ptr, ptr, i32, i64, i64, ptr, ...) @H5E_printf_stack(ptr noundef nonnull @.str, ptr noundef nonnull @__func__.H5VL__native_datatype_commit, i32 noundef 97, i64 noundef %35, i64 noundef %36, ptr noundef nonnull @.str.4) #2
  br label %.thread

38:                                               ; preds = %25
  %39 = call i32 @H5T_is_sensible(ptr noundef nonnull %19) #2
  %40 = icmp slt i32 %39, 1
  br i1 %40, label %41, label %45

41:                                               ; preds = %38
  %42 = load i64, ptr @H5E_ARGS_g, align 8
  %43 = load i64, ptr @H5E_BADTYPE_g, align 8
  %44 = call i32 (ptr, ptr, i32, i64, i64, ptr, ...) @H5E_printf_stack(ptr noundef nonnull @.str, ptr noundef nonnull @__func__.H5VL__native_datatype_commit, i32 noundef 101, i64 noundef %42, i64 noundef %43, ptr noundef nonnull @.str.5) #2
  br label %.thread

45:                                               ; preds = %38
  %46 = call ptr @H5T_copy(ptr noundef nonnull %19, i32 noundef 0) #2
  %47 = icmp eq ptr %46, null
  br i1 %47, label %48, label %52

48:                                               ; preds = %45
  %49 = load i64, ptr @H5E_DATATYPE_g, align 8
  %50 = load i64, ptr @H5E_CANTINIT_g, align 8
  %51 = call i32 (ptr, ptr, i32, i64, i64, ptr, ...) @H5E_printf_stack(ptr noundef nonnull @.str, ptr noundef nonnull @__func__.H5VL__native_datatype_commit, i32 noundef 108, i64 noundef %49, i64 noundef %50, ptr noundef nonnull @.str.6) #2
  br label %.thread

52:                                               ; preds = %45
  %.not = icmp eq ptr %2, null
  br i1 %.not, label %56, label %53

53:                                               ; preds = %52
  %54 = call i32 @H5T__commit_named(ptr noundef nonnull %10, ptr noundef nonnull %2, ptr noundef nonnull %46, i64 noundef %4, i64 noundef %5) #2
  %55 = icmp slt i32 %54, 0
  br i1 %55, label %61, label %.thread

56:                                               ; preds = %52
  %57 = load ptr, ptr %10, align 8
  %58 = load ptr, ptr %57, align 8
  %59 = call i32 @H5T__commit_anon(ptr noundef %58, ptr noundef nonnull %46, i64 noundef %5) #2
  %60 = icmp slt i32 %59, 0
  br i1 %60, label %61, label %.thread

61:                                               ; preds = %56, %53
  %.sink = phi i32 [ 114, %53 ], [ 119, %56 ]
  %62 = load i64, ptr @H5E_DATATYPE_g, align 8
  %63 = load i64, ptr @H5E_CANTINIT_g, align 8
  %64 = call i32 (ptr, ptr, i32, i64, i64, ptr, ...) @H5E_printf_stack(ptr noundef nonnull @.str, ptr noundef nonnull @__func__.H5VL__native_datatype_commit, i32 noundef %.sink, i64 noundef %62, i64 noundef %63, ptr noundef nonnull @.str.7) #2
  %65 = call i32 @H5T_close(ptr noundef nonnull %46) #2
  br label %.thread

.thread:                                          ; preds = %48, %41, %34, %30, %21, %14, %53, %56, %61
  %.036 = phi ptr [ null, %61 ], [ %46, %53 ], [ %46, %56 ], [ null, %48 ], [ null, %41 ], [ null, %34 ], [ null, %30 ], [ null, %21 ], [ null, %14 ]
  ret ptr %.036
}